; Function Attrs: mustprogress uwtable
define internal void @_ZL10CPLSPrintfB5cxx11PKcz(ptr dead_on_unwind noalias nonnull writable sret(%"class.std::__cxx11::basic_string") align 8 %0, ptr noundef %1, ...) unnamed_addr #0 personality ptr @__gxx_personality_v0 {
  %3 = alloca [1 x %struct.__va_list_tag], align 16
  tail call void @_ZNSt7__cxx1112basic_stringIcSt11char_traitsIcESaIcEEC1Ev(ptr noundef nonnull align 8 dereferenceable(32) %0) #13
  invoke void @_ZNSt7__cxx1112basic_stringIcSt11char_traitsIcESaIcEE6resizeEm(ptr noundef nonnull align 8 dereferenceable(32) %0, i64 noundef 256)
          to label %4 unwind label %12

4:                                                ; preds = %2
  call void @llvm.va_start.p0(ptr nonnull %3)
  %5 = invoke noundef nonnull align 1 dereferenceable(1) ptr @_ZNSt7__cxx1112basic_stringIcSt11char_traitsIcESaIcEEixEm(ptr noundef nonnull align 8 dereferenceable(32) %0, i64 noundef 0)
          to label %6 unwind label %12

6:                                                ; preds = %4
  %7 = invoke ptr @sqlite3_vsnprintf(i32 noundef 256, ptr noundef nonnull %5, ptr noundef %1, ptr noundef nonnull %3)
          to label %8 unwind label %12

8:                                                ; preds = %6
  call void @llvm.va_end.p0(ptr nonnull %3)
  %9 = invoke noundef nonnull align 1 dereferenceable(1) ptr @_ZNSt7__cxx1112basic_stringIcSt11char_traitsIcESaIcEEixEm(ptr noundef nonnull align 8 dereferenceable(32) %0, i64 noundef 0)
          to label %10 unwind label %12

10:                                               ; preds = %8
  %11 = call i64 @strlen(ptr noundef nonnull dereferenceable(1) %9) #15
  invoke void @_ZNSt7__cxx1112basic_stringIcSt11char_traitsIcESaIcEE6resizeEm(ptr noundef nonnull align 8 dereferenceable(32) %0, i64 noundef %11)
          to label %14 unwind label %12

12:                                               ; preds = %10, %8, %6, %4, %2
  %13 = landingpad { ptr, i32 }
          cleanup
  call void @_ZNSt7__cxx1112basic_stringIcSt11char_traitsIcESaIcEED1Ev(ptr noundef nonnull align 8 dereferenceable(32) %0) #13
  resume { ptr, i32 } %13

14:                                               ; preds = %10
  ret void
}